target datalayout = "e-m:e-p270:32:32-p271:32:32-p272:64:64-i64:64-i128:128-f80:128-n8:16:32:64-S128"
target triple = "x86_64-pc-linux-gnu"

%struct.Vec_Int_t_ = type { i32, i32, ptr }
%struct.Gia_Man_t_ = type { ptr, ptr, i32, i32, i32, i32, ptr, ptr, i32, i32, i32, ptr, ptr, %struct.Vec_Int_t_, %struct.Vec_Int_t_, i32, i32, i32, %struct.Vec_Int_t_, ptr, ptr, ptr, i32, i32, i32, i32, ptr, ptr, ptr, ptr, ptr, i32, i32, ptr, i32, ptr, ptr, ptr, ptr, ptr, ptr, ptr, ptr, ptr, ptr, ptr, ptr, ptr, ptr, ptr, ptr, ptr, ptr, %struct.Vec_Int_t_, %struct.Vec_Int_t_, ptr, ptr, ptr, ptr, ptr, ptr, ptr, ptr, ptr, ptr, ptr, ptr, ptr, ptr, ptr, ptr, ptr, ptr, ptr, ptr, ptr, i32, float, float, ptr, ptr, i32, ptr, ptr, ptr, ptr, ptr, ptr, ptr, ptr, ptr, ptr, ptr, ptr, ptr, ptr, ptr, i64, i64, ptr, ptr, i32, i32, i32, i32, i32, i32, i32, i32, i32, i32, i32, i32, ptr, ptr, ptr, ptr, ptr, ptr, ptr, ptr, i32, i32, i32, ptr, i32, i32, ptr, ptr, ptr, ptr, ptr, ptr, i32, i32, ptr, %struct.Vec_Int_t_, %struct.Vec_Int_t_, %struct.Vec_Int_t_, ptr, ptr, ptr, i32, i32, i32, i32, ptr, ptr, ptr, ptr, ptr }
%struct.Jf_Man_t_ = type { ptr, ptr, ptr, ptr, ptr, %struct.Vec_Int_t_, %struct.Vec_Int_t_, %struct.Vec_Int_t_, %struct.Vec_Flt_t_, %struct.Vec_Flt_t_, %struct.Vec_Set_t_, ptr, ptr, i64, [4 x i64], i32 }
%struct.Vec_Flt_t_ = type { i32, i32, ptr }
%struct.Vec_Set_t_ = type { i32, i32, i32, i32, i32, i32, ptr }

; Function Attrs: inlinehint nounwind uwtable
define internal i32 @Vec_SetHandShift(ptr noundef %0, i32 noundef %1) #1 {
  %3 = alloca ptr, align 8
  %4 = alloca i32, align 4
  store ptr %0, ptr %3, align 8, !tbaa !112
  store i32 %1, ptr %4, align 4, !tbaa !7
  %5 = load i32, ptr %4, align 4, !tbaa !7
  %6 = load ptr, ptr %3, align 8, !tbaa !112
  %7 = getelementptr inbounds nuw %struct.Vec_Set_t_, ptr %6, i32 0, i32 1
  %8 = load i32, ptr %7, align 4, !tbaa !115
  %9 = and i32 %5, %8
  ret i32 %9
}

; Function Attrs: inlinehint nounwind uwtable
define internal i32 @Vec_SetHandPage(ptr noundef %0, i32 noundef %1) #1 {
  %3 = alloca ptr, align 8
  %4 = alloca i32, align 4
  store ptr %0, ptr %3, align 8, !tbaa !112
  store i32 %1, ptr %4, align 4, !tbaa !7
  %5 = load i32, ptr %4, align 4, !tbaa !7
  %6 = load ptr, ptr %3, align 8, !tbaa !112
  %7 = getelementptr inbounds nuw %struct.Vec_Set_t_, ptr %6, i32 0, i32 0
  %8 = load i32, ptr %7, align 8, !tbaa !114
  %9 = ashr i32 %5, %8
  ret i32 %9
}

; Function Attrs: inlinehint nounwind uwtable
define internal i32 @Vec_IntEntry(ptr noundef %0, i32 noundef %1) #1 {
  %3 = alloca ptr, align 8
  %4 = alloca i32, align 4
  store ptr %0, ptr %3, align 8, !tbaa !9
  store i32 %1, ptr %4, align 4, !tbaa !7
  %5 = load ptr, ptr %3, align 8, !tbaa !9
  %6 = getelementptr inbounds nuw %struct.Vec_Int_t_, ptr %5, i32 0, i32 2
  %7 = load ptr, ptr %6, align 8, !tbaa !20
  %8 = load i32, ptr %4, align 4, !tbaa !7
  %9 = sext i32 %8 to i64
  %10 = getelementptr inbounds i32, ptr %7, i64 %9
  %11 = load i32, ptr %10, align 4, !tbaa !7
  ret i32 %11
}

; Function Attrs: inlinehint nounwind uwtable
define internal ptr @Vec_SetEntry(ptr noundef %0, i32 noundef %1) #1 {
  %3 = alloca ptr, align 8
  %4 = alloca i32, align 4
  store ptr %0, ptr %3, align 8, !tbaa !112
  store i32 %1, ptr %4, align 4, !tbaa !7
  %5 = load ptr, ptr %3, align 8, !tbaa !112
  %6 = getelementptr inbounds nuw %struct.Vec_Set_t_, ptr %5, i32 0, i32 6
  %7 = load ptr, ptr %6, align 8, !tbaa !117
  %8 = load ptr, ptr %3, align 8, !tbaa !112
  %9 = load i32, ptr %4, align 4, !tbaa !7
  %10 = call i32 @Vec_SetHandPage(ptr noundef %8, i32 noundef %9)
  %11 = sext i32 %10 to i64
  %12 = getelementptr inbounds ptr, ptr %7, i64 %11
  %13 = load ptr, ptr %12, align 8, !tbaa !104
  %14 = load ptr, ptr %3, align 8, !tbaa !112
  %15 = load i32, ptr %4, align 4, !tbaa !7
  %16 = call i32 @Vec_SetHandShift(ptr noundef %14, i32 noundef %15)
  %17 = sext i32 %16 to i64
  %18 = getelementptr inbounds i64, ptr %13, i64 %17
  ret ptr %18
}

; Function Attrs: inlinehint nounwind uwtable
define internal i32 @Jf_ObjCutH(ptr noundef %0, i32 noundef %1) #1 {
  %3 = alloca ptr, align 8
  %4 = alloca i32, align 4
  store ptr %0, ptr %3, align 8, !tbaa !64
  store i32 %1, ptr %4, align 4, !tbaa !7
  %5 = load ptr, ptr %3, align 8, !tbaa !64
  %6 = getelementptr inbounds nuw %struct.Jf_Man_t_, ptr %5, i32 0, i32 5
  %7 = load i32, ptr %4, align 4, !tbaa !7
  %8 = call i32 @Vec_IntEntry(ptr noundef %6, i32 noundef %7)
  ret i32 %8
}

; Function Attrs: inlinehint nounwind uwtable
define internal ptr @Jf_ObjCuts(ptr noundef %0, i32 noundef %1) #1 {
  %3 = alloca ptr, align 8
  %4 = alloca i32, align 4
  store ptr %0, ptr %3, align 8, !tbaa !64
  store i32 %1, ptr %4, align 4, !tbaa !7
  %5 = load ptr, ptr %3, align 8, !tbaa !64
  %6 = getelementptr inbounds nuw %struct.Jf_Man_t_, ptr %5, i32 0, i32 10
  %7 = load ptr, ptr %3, align 8, !tbaa !64
  %8 = load i32, ptr %4, align 4, !tbaa !7
  %9 = call i32 @Jf_ObjCutH(ptr noundef %7, i32 noundef %8)
  %10 = call ptr @Vec_SetEntry(ptr noundef %6, i32 noundef %9)
  ret ptr %10
}

; Function Attrs: inlinehint nounwind uwtable
define internal i32 @Abc_Lit2Var(i32 noundef %0) #1 {
  %2 = alloca i32, align 4
  store i32 %0, ptr %2, align 4, !tbaa !7
  %3 = load i32, ptr %2, align 4, !tbaa !7
  %4 = ashr i32 %3, 1
  ret i32 %4
}

; Function Attrs: inlinehint nounwind uwtable
define internal i32 @Jf_CutIsTriv(ptr noundef %0, i32 noundef %1) #1 {
  %3 = alloca ptr, align 8
  %4 = alloca i32, align 4
  store ptr %0, ptr %3, align 8, !tbaa !27
  store i32 %1, ptr %4, align 4, !tbaa !7
  %5 = load ptr, ptr %3, align 8, !tbaa !27
  %6 = call i32 @Jf_CutSize(ptr noundef %5)
  %7 = icmp eq i32 %6, 1
  br i1 %7, label %8, label %13

8:                                                ; preds = %2
  %9 = load ptr, ptr %3, align 8, !tbaa !27
  %10 = call i32 @Jf_CutVar(ptr noundef %9, i32 noundef 1)
  %11 = load i32, ptr %4, align 4, !tbaa !7
  %12 = icmp eq i32 %10, %11
  br label %13

13:                                               ; preds = %8, %2
  %14 = phi i1 [ false, %2 ], [ %12, %8 ]
  %15 = zext i1 %14 to i32
  ret i32 %15
}

; Function Attrs: inlinehint nounwind uwtable
define internal ptr @Jf_ObjCutBest(ptr noundef %0, i32 noundef %1) #1 {
  %3 = alloca ptr, align 8
  %4 = alloca i32, align 4
  store ptr %0, ptr %3, align 8, !tbaa !64
  store i32 %1, ptr %4, align 4, !tbaa !7
  %5 = load ptr, ptr %3, align 8, !tbaa !64
  %6 = load i32, ptr %4, align 4, !tbaa !7
  %7 = call ptr @Jf_ObjCuts(ptr noundef %5, i32 noundef %6)
  %8 = getelementptr inbounds i32, ptr %7, i64 1
  ret ptr %8
}

; Function Attrs: inlinehint nounwind uwtable
define internal i32 @Gia_ObjRefIncId(ptr noundef %0, i32 noundef %1) #1 {
  %3 = alloca ptr, align 8
  %4 = alloca i32, align 4
  store ptr %0, ptr %3, align 8, !tbaa !21
  store i32 %1, ptr %4, align 4, !tbaa !7
  %5 = load ptr, ptr %3, align 8, !tbaa !21
  %6 = getelementptr inbounds nuw %struct.Gia_Man_t_, ptr %5, i32 0, i32 19
  %7 = load ptr, ptr %6, align 8, !tbaa !75
  %8 = load i32, ptr %4, align 4, !tbaa !7
  %9 = sext i32 %8 to i64
  %10 = getelementptr inbounds i32, ptr %7, i64 %9
  %11 = load i32, ptr %10, align 4, !tbaa !7
  %12 = add nsw i32 %11, 1
  store i32 %12, ptr %10, align 4, !tbaa !7
  ret i32 %11
}

; Function Attrs: inlinehint nounwind uwtable
define internal i32 @Jf_CutVar(ptr noundef %0, i32 noundef %1) #1 {
  %3 = alloca ptr, align 8
  %4 = alloca i32, align 4
  store ptr %0, ptr %3, align 8, !tbaa !27
  store i32 %1, ptr %4, align 4, !tbaa !7
  %5 = load ptr, ptr %3, align 8, !tbaa !27
  %6 = load i32, ptr %4, align 4, !tbaa !7
  %7 = sext i32 %6 to i64
  %8 = getelementptr inbounds i32, ptr %5, i64 %7
  %9 = load i32, ptr %8, align 4, !tbaa !7
  %10 = call i32 @Abc_Lit2Var(i32 noundef %9)
  ret i32 %10
}

; Function Attrs: inlinehint nounwind uwtable
define internal i32 @Jf_CutSize(ptr noundef %0) #1 {
  %2 = alloca ptr, align 8
  store ptr %0, ptr %2, align 8, !tbaa !27
  %3 = load ptr, ptr %2, align 8, !tbaa !27
  %4 = getelementptr inbounds i32, ptr %3, i64 0
  %5 = load i32, ptr %4, align 4, !tbaa !7
  %6 = and i32 %5, 15
  ret i32 %6
}

; Function Attrs: inlinehint nounwind uwtable
define internal i32 @Jf_CutCost(ptr noundef %0) #1 {
  %2 = alloca ptr, align 8
  store ptr %0, ptr %2, align 8, !tbaa !27
  %3 = load ptr, ptr %2, align 8, !tbaa !27
  %4 = getelementptr inbounds i32, ptr %3, i64 0
  %5 = load i32, ptr %4, align 4, !tbaa !7
  %6 = ashr i32 %5, 4
  %7 = and i32 %6, 15
  ret i32 %7
}

; Function Attrs: nounwind uwtable
define i32 @Jf_CutRef_rec(ptr noundef %0, ptr noundef %1) #0 {
  %3 = alloca ptr, align 8
  %4 = alloca ptr, align 8
  %5 = alloca i32, align 4
  %6 = alloca i32, align 4
  %7 = alloca i32, align 4
  store ptr %0, ptr %3, align 8, !tbaa !64
  store ptr %1, ptr %4, align 8, !tbaa !27
  call void @llvm.lifetime.start.p0(i64 4, ptr %5) #14
  call void @llvm.lifetime.start.p0(i64 4, ptr %6) #14
  call void @llvm.lifetime.start.p0(i64 4, ptr %7) #14
  %8 = load ptr, ptr %4, align 8, !tbaa !27
  %9 = call i32 @Jf_CutCost(ptr noundef %8)
  store i32 %9, ptr %7, align 4, !tbaa !7
  store i32 1, ptr %5, align 4, !tbaa !7
  br label %10

10:                                               ; preds = %45, %2
  %11 = load i32, ptr %5, align 4, !tbaa !7
  %12 = load ptr, ptr %4, align 8, !tbaa !27
  %13 = call i32 @Jf_CutSize(ptr noundef %12)
  %14 = icmp sle i32 %11, %13
  br i1 %14, label %15, label %20

15:                                               ; preds = %10
  %16 = load ptr, ptr %4, align 8, !tbaa !27
  %17 = load i32, ptr %5, align 4, !tbaa !7
  %18 = call i32 @Jf_CutVar(ptr noundef %16, i32 noundef %17)
  store i32 %18, ptr %6, align 4, !tbaa !7
  %19 = icmp ne i32 %18, 0
  br label %20

20:                                               ; preds = %15, %10
  %21 = phi i1 [ false, %10 ], [ %19, %15 ]
  br i1 %21, label %22, label %48

22:                                               ; preds = %20
  %23 = load ptr, ptr %3, align 8, !tbaa !64
  %24 = getelementptr inbounds nuw %struct.Jf_Man_t_, ptr %23, i32 0, i32 0
  %25 = load ptr, ptr %24, align 8, !tbaa !66
  %26 = load i32, ptr %6, align 4, !tbaa !7
  %27 = call i32 @Gia_ObjRefIncId(ptr noundef %25, i32 noundef %26)
  %28 = icmp ne i32 %27, 0
  br i1 %28, label %44, label %29

29:                                               ; preds = %22
  %30 = load ptr, ptr %3, align 8, !tbaa !64
  %31 = load i32, ptr %6, align 4, !tbaa !7
  %32 = call ptr @Jf_ObjCutBest(ptr noundef %30, i32 noundef %31)
  %33 = load i32, ptr %6, align 4, !tbaa !7
  %34 = call i32 @Jf_CutIsTriv(ptr noundef %32, i32 noundef %33)
  %35 = icmp ne i32 %34, 0
  br i1 %35, label %44, label %36

36:                                               ; preds = %29
  %37 = load ptr, ptr %3, align 8, !tbaa !64
  %38 = load ptr, ptr %3, align 8, !tbaa !64
  %39 = load i32, ptr %6, align 4, !tbaa !7
  %40 = call ptr @Jf_ObjCutBest(ptr noundef %38, i32 noundef %39)
  %41 = call i32 @Jf_CutRef_rec(ptr noundef %37, ptr noundef %40)
  %42 = load i32, ptr %7, align 4, !tbaa !7
  %43 = add nsw i32 %42, %41
  store i32 %43, ptr %7, align 4, !tbaa !7
  br label %44

44:                                               ; preds = %36, %29, %22
  br label %45

45:                                               ; preds = %44
  %46 = load i32, ptr %5, align 4, !tbaa !7
  %47 = add nsw i32 %46, 1
  store i32 %47, ptr %5, align 4, !tbaa !7
  br label %10, !llvm.loop !147

48:                                               ; preds = %20
  %49 = load i32, ptr %7, align 4, !tbaa !7
  call void @llvm.lifetime.end.p0(i64 4, ptr %7) #14
  call void @llvm.lifetime.end.p0(i64 4, ptr %6) #14
  call void @llvm.lifetime.end.p0(i64 4, ptr %5) #14
  ret i32 %49
}