; Function Attrs: nofree nosync nounwind memory(readwrite, inaccessiblemem: none) uwtable
define i32 @Jf_CutRef_rec(ptr noundef readonly captures(none) %0, ptr noundef readonly captures(none) %1) local_unnamed_addr #11 {
  %.val21 = load i32, ptr %1, align 4, !tbaa !14
  %3 = lshr i32 %.val21, 4
  %4 = and i32 %3, 15
  %5 = and i32 %.val21, 15
  %.not28 = icmp eq i32 %5, 0
  br i1 %.not28, label %.critedge, label %.lr.ph

.lr.ph:                                           ; preds = %2
  %6 = getelementptr inbounds nuw i8, ptr %0, i64 120
  %7 = getelementptr i8, ptr %0, i64 48
  %8 = getelementptr inbounds nuw i8, ptr %0, i64 144
  %9 = getelementptr i8, ptr %0, i64 124
  br label %10

10:                                               ; preds = %.lr.ph, %40
  %indvars.iv = phi i64 [ 1, %.lr.ph ], [ %indvars.iv.next, %40 ]
  %.030 = phi i32 [ %4, %.lr.ph ], [ %.1, %40 ]
  %11 = getelementptr inbounds nuw i32, ptr %1, i64 %indvars.iv
  %12 = load i32, ptr %11, align 4, !tbaa !14
  %13 = ashr i32 %12, 1
  %.not17 = icmp ult i32 %12, 2
  br i1 %.not17, label %.critedge, label %14

14:                                               ; preds = %10
  %15 = load ptr, ptr %0, align 8, !tbaa !59
  %16 = getelementptr i8, ptr %15, i64 144
  %.val = load ptr, ptr %16, align 8, !tbaa !68
  %17 = sext i32 %13 to i64
  %18 = getelementptr inbounds i32, ptr %.val, i64 %17
  %19 = load i32, ptr %18, align 4, !tbaa !14
  %20 = add nsw i32 %19, 1
  store i32 %20, ptr %18, align 4, !tbaa !14
  %.not18 = icmp eq i32 %19, 0
  br i1 %.not18, label %21, label %40

21:                                               ; preds = %14
  %.val.i.i = load ptr, ptr %7, align 8, !tbaa !13
  %22 = getelementptr inbounds i32, ptr %.val.i.i, i64 %17
  %23 = load i32, ptr %22, align 4, !tbaa !14
  %24 = load ptr, ptr %8, align 8, !tbaa !80
  %.val.i.i.i = load i32, ptr %6, align 8, !tbaa !81
  %25 = ashr i32 %23, %.val.i.i.i
  %26 = sext i32 %25 to i64
  %27 = getelementptr inbounds ptr, ptr %24, i64 %26
  %28 = load ptr, ptr %27, align 8, !tbaa !82
  %.val4.i.i.i = load i32, ptr %9, align 4, !tbaa !84
  %29 = and i32 %.val4.i.i.i, %23
  %30 = sext i32 %29 to i64
  %31 = getelementptr inbounds i64, ptr %28, i64 %30
  %32 = getelementptr inbounds nuw i8, ptr %31, i64 4
  %.val.i = load i32, ptr %32, align 4, !tbaa !14
  %33 = and i32 %.val.i, 15
  %34 = icmp eq i32 %33, 1
  br i1 %34, label %Jf_CutIsTriv.exit, label %Jf_CutIsTriv.exit.thread

Jf_CutIsTriv.exit:                                ; preds = %21
  %35 = getelementptr inbounds nuw i8, ptr %31, i64 8
  %36 = load i32, ptr %35, align 4, !tbaa !14
  %37 = ashr i32 %36, 1
  %.not26 = icmp eq i32 %37, %13
  br i1 %.not26, label %40, label %Jf_CutIsTriv.exit.thread

Jf_CutIsTriv.exit.thread:                         ; preds = %21, %Jf_CutIsTriv.exit
  %38 = tail call i32 @Jf_CutRef_rec(ptr noundef nonnull %0, ptr noundef nonnull %32)
  %39 = add nsw i32 %38, %.030
  br label %40

40:                                               ; preds = %14, %Jf_CutIsTriv.exit, %Jf_CutIsTriv.exit.thread
  %.1 = phi i32 [ %.030, %14 ], [ %.030, %Jf_CutIsTriv.exit ], [ %39, %Jf_CutIsTriv.exit.thread ]
  %indvars.iv.next = add nuw nsw i64 %indvars.iv, 1
  %.val20 = load i32, ptr %1, align 4, !tbaa !14
  %41 = and i32 %.val20, 15
  %42 = zext nneg i32 %41 to i64
  %.not.not = icmp samesign ult i64 %indvars.iv, %42
  br i1 %.not.not, label %10, label %.critedge, !llvm.loop !139

.critedge:                                        ; preds = %10, %40, %2
  %.0.lcssa = phi i32 [ %4, %2 ], [ %.1, %40 ], [ %.030, %10 ]
  ret i32 %.0.lcssa
}